target datalayout = "e-m:e-p270:32:32-p271:32:32-p272:64:64-i64:64-i128:128-f80:128-n8:16:32:64-S128"
target triple = "x86_64-pc-linux-gnu"

@.str.2 = private unnamed_addr constant [9 x i8] c"Callback\00", align 1
@hf_afs_cb_callback_version = internal global i32 0, align 4
@hf_afs_cb_callback_expires = internal global i32 0, align 4
@hf_afs_cb_callback_type = internal global i32 0, align 4
@hf_afs_cb_fid_volume = internal global i32 0, align 4
@hf_afs_cb_fid_vnode = internal global i32 0, align 4
@hf_afs_cb_fid_uniqifier = internal global i32 0, align 4
@ett_afs_fid = internal global i32 0, align 4
@ett_afs_callback = internal global i32 0, align 4
@.str.950 = private unnamed_addr constant [12 x i8] c"FileID (%s)\00", align 1
@.str.952 = private unnamed_addr constant [7 x i8] c"Target\00", align 1

; Function Attrs: null_pointer_is_valid sspstrong uwtable
define internal void @OUT_TIMESECS(ptr noundef %0, i32 noundef %1) #0 {
  %3 = alloca ptr, align 8
  %4 = alloca i32, align 4
  store ptr %0, ptr %3, align 8
  store i32 %1, ptr %4, align 4
  %5 = load ptr, ptr %3, align 8
  %6 = call ptr @ptvcursor_tree(ptr noundef %5)
  %7 = load i32, ptr %4, align 4
  %8 = load ptr, ptr %3, align 8
  %9 = call ptr @ptvcursor_tvbuff(ptr noundef %8)
  %10 = load ptr, ptr %3, align 8
  %11 = call i32 @ptvcursor_current_offset(ptr noundef %10)
  %12 = call ptr @proto_tree_add_item(ptr noundef %6, i32 noundef %7, ptr noundef %9, i32 noundef %11, i32 noundef 4, i32 noundef 18)
  %13 = load ptr, ptr %3, align 8
  call void @ptvcursor_advance(ptr noundef %13, i32 noundef 4)
  ret void
}

; Function Attrs: null_pointer_is_valid sspstrong uwtable
define internal void @OUT_CB_AFSCallBack(ptr noundef %0) #0 {
  %2 = alloca ptr, align 8
  store ptr %0, ptr %2, align 8
  %3 = load ptr, ptr %2, align 8
  %4 = load i32, ptr @ett_afs_callback, align 4
  %5 = call ptr (ptr, i32, i32, ptr, ...) @ptvcursor_add_text_with_subtree(ptr noundef %3, i32 noundef -1, i32 noundef %4, ptr noundef @.str.2)
  %6 = load ptr, ptr %2, align 8
  %7 = load i32, ptr @hf_afs_cb_callback_version, align 4
  %8 = call ptr @ptvcursor_add(ptr noundef %6, i32 noundef %7, i32 noundef 4, i32 noundef 0)
  %9 = load ptr, ptr %2, align 8
  %10 = load i32, ptr @hf_afs_cb_callback_expires, align 4
  call void @OUT_TIMESECS(ptr noundef %9, i32 noundef %10)
  %11 = load ptr, ptr %2, align 8
  %12 = load i32, ptr @hf_afs_cb_callback_type, align 4
  %13 = call ptr @ptvcursor_add(ptr noundef %11, i32 noundef %12, i32 noundef 4, i32 noundef 0)
  %14 = load ptr, ptr %2, align 8
  call void @ptvcursor_pop_subtree(ptr noundef %14)
  ret void
}

; Function Attrs: null_pointer_is_valid sspstrong uwtable
define internal void @OUT_CB_AFSFid(ptr noundef %0, ptr noundef %1) #0 {
  %3 = alloca ptr, align 8
  %4 = alloca ptr, align 8
  store ptr %0, ptr %3, align 8
  store ptr %1, ptr %4, align 8
  %5 = load ptr, ptr %3, align 8
  %6 = load i32, ptr @ett_afs_fid, align 4
  %7 = load ptr, ptr %4, align 8
  %8 = call ptr (ptr, i32, i32, ptr, ...) @ptvcursor_add_text_with_subtree(ptr noundef %5, i32 noundef -1, i32 noundef %6, ptr noundef @.str.950, ptr noundef %7)
  %9 = load ptr, ptr %3, align 8
  %10 = load i32, ptr @hf_afs_cb_fid_volume, align 4
  %11 = call ptr @ptvcursor_add(ptr noundef %9, i32 noundef %10, i32 noundef 4, i32 noundef 0)
  %12 = load ptr, ptr %3, align 8
  %13 = load i32, ptr @hf_afs_cb_fid_vnode, align 4
  %14 = call ptr @ptvcursor_add(ptr noundef %12, i32 noundef %13, i32 noundef 4, i32 noundef 0)
  %15 = load ptr, ptr %3, align 8
  %16 = load i32, ptr @hf_afs_cb_fid_uniqifier, align 4
  %17 = call ptr @ptvcursor_add(ptr noundef %15, i32 noundef %16, i32 noundef 4, i32 noundef 0)
  %18 = load ptr, ptr %3, align 8
  call void @ptvcursor_pop_subtree(ptr noundef %18)
  ret void
}

; Function Attrs: null_pointer_is_valid sspstrong uwtable
define internal void @dissect_cb_request(ptr noundef %0, ptr noundef %1, i32 noundef %2) #0 {
  %4 = alloca ptr, align 8
  %5 = alloca ptr, align 8
  %6 = alloca i32, align 4
  %7 = alloca i32, align 4
  %8 = alloca i32, align 4
  %9 = alloca i32, align 4
  %10 = alloca i32, align 4
  store ptr %0, ptr %4, align 8
  store ptr %1, ptr %5, align 8
  store i32 %2, ptr %6, align 4
  %11 = load ptr, ptr %4, align 8
  call void @ptvcursor_advance(ptr noundef %11, i32 noundef 4)
  %12 = load i32, ptr %6, align 4
  switch i32 %12, label %46 [
    i32 204, label %13
  ]

13:                                               ; preds = %3
  call void @llvm.lifetime.start.p0(i64 4, ptr %7) #9
  call void @llvm.lifetime.start.p0(i64 4, ptr %8) #9
  %14 = load ptr, ptr %4, align 8
  %15 = call ptr @ptvcursor_tvbuff(ptr noundef %14)
  %16 = load ptr, ptr %4, align 8
  %17 = call i32 @ptvcursor_current_offset(ptr noundef %16)
  %18 = call i32 @tvb_get_ntohl(ptr noundef %15, i32 noundef %17)
  store i32 %18, ptr %7, align 4
  %19 = load ptr, ptr %4, align 8
  call void @ptvcursor_advance(ptr noundef %19, i32 noundef 4)
  store i32 0, ptr %8, align 4
  br label %20

20:                                               ; preds = %26, %13
  %21 = load i32, ptr %8, align 4
  %22 = load i32, ptr %7, align 4
  %23 = icmp ult i32 %21, %22
  br i1 %23, label %24, label %29

24:                                               ; preds = %20
  %25 = load ptr, ptr %4, align 8
  call void @OUT_CB_AFSFid(ptr noundef %25, ptr noundef @.str.952)
  br label %26

26:                                               ; preds = %24
  %27 = load i32, ptr %8, align 4
  %28 = add i32 %27, 1
  store i32 %28, ptr %8, align 4
  br label %20, !llvm.loop !17

29:                                               ; preds = %20
  call void @llvm.lifetime.end.p0(i64 4, ptr %8) #9
  call void @llvm.lifetime.end.p0(i64 4, ptr %7) #9
  call void @llvm.lifetime.start.p0(i64 4, ptr %9) #9
  call void @llvm.lifetime.start.p0(i64 4, ptr %10) #9
  %30 = load ptr, ptr %4, align 8
  %31 = call ptr @ptvcursor_tvbuff(ptr noundef %30)
  %32 = load ptr, ptr %4, align 8
  %33 = call i32 @ptvcursor_current_offset(ptr noundef %32)
  %34 = call i32 @tvb_get_ntohl(ptr noundef %31, i32 noundef %33)
  store i32 %34, ptr %9, align 4
  %35 = load ptr, ptr %4, align 8
  call void @ptvcursor_advance(ptr noundef %35, i32 noundef 4)
  store i32 0, ptr %10, align 4
  br label %36

36:                                               ; preds = %42, %29
  %37 = load i32, ptr %10, align 4
  %38 = load i32, ptr %9, align 4
  %39 = icmp ult i32 %37, %38
  br i1 %39, label %40, label %45

40:                                               ; preds = %36
  %41 = load ptr, ptr %4, align 8
  call void @OUT_CB_AFSCallBack(ptr noundef %41)
  br label %42

42:                                               ; preds = %40
  %43 = load i32, ptr %10, align 4
  %44 = add i32 %43, 1
  store i32 %44, ptr %10, align 4
  br label %36, !llvm.loop !18

45:                                               ; preds = %36
  call void @llvm.lifetime.end.p0(i64 4, ptr %10) #9
  call void @llvm.lifetime.end.p0(i64 4, ptr %9) #9
  br label %46

46:                                               ; preds = %3, %45
  ret void
}