; Function Attrs: null_pointer_is_valid sspstrong uwtable
define internal void @dissect_cb_request(ptr noundef %0, ptr readnone captures(none) %1, i32 noundef %2) #0 {
  tail call void @ptvcursor_advance(ptr noundef %0, i32 noundef 4)
  %cond = icmp eq i32 %2, 204
  br i1 %cond, label %4, label %.loopexit

4:                                                ; preds = %3
  %5 = tail call ptr @ptvcursor_tvbuff(ptr noundef %0)
  %6 = tail call i32 @ptvcursor_current_offset(ptr noundef %0)
  %7 = tail call i32 @tvb_get_ntohl(ptr noundef %5, i32 noundef %6)
  tail call void @ptvcursor_advance(ptr noundef %0, i32 noundef 4)
  %.not = icmp eq i32 %7, 0
  br i1 %.not, label %._crit_edge, label %.lr.ph

.lr.ph:                                           ; preds = %4, %.lr.ph
  %.01516 = phi i32 [ %16, %.lr.ph ], [ 0, %4 ]
  %8 = load i32, ptr @ett_afs_fid, align 4
  %9 = tail call ptr (ptr, i32, i32, ptr, ...) @ptvcursor_add_text_with_subtree(ptr noundef %0, i32 noundef -1, i32 noundef %8, ptr noundef nonnull @.str.950, ptr noundef nonnull @.str.952)
  %10 = load i32, ptr @hf_afs_cb_fid_volume, align 4
  %11 = tail call ptr @ptvcursor_add(ptr noundef %0, i32 noundef %10, i32 noundef 4, i32 noundef 0)
  %12 = load i32, ptr @hf_afs_cb_fid_vnode, align 4
  %13 = tail call ptr @ptvcursor_add(ptr noundef %0, i32 noundef %12, i32 noundef 4, i32 noundef 0)
  %14 = load i32, ptr @hf_afs_cb_fid_uniqifier, align 4
  %15 = tail call ptr @ptvcursor_add(ptr noundef %0, i32 noundef %14, i32 noundef 4, i32 noundef 0)
  tail call void @ptvcursor_pop_subtree(ptr noundef %0)
  %16 = add nuw i32 %.01516, 1
  %exitcond.not = icmp eq i32 %16, %7
  br i1 %exitcond.not, label %._crit_edge, label %.lr.ph, !llvm.loop !21

._crit_edge:                                      ; preds = %.lr.ph, %4
  %17 = tail call ptr @ptvcursor_tvbuff(ptr noundef %0)
  %18 = tail call i32 @ptvcursor_current_offset(ptr noundef %0)
  %19 = tail call i32 @tvb_get_ntohl(ptr noundef %17, i32 noundef %18)
  tail call void @ptvcursor_advance(ptr noundef %0, i32 noundef 4)
  %.not20 = icmp eq i32 %19, 0
  br i1 %.not20, label %.loopexit, label %.lr.ph19

.lr.ph19:                                         ; preds = %._crit_edge, %.lr.ph19
  %.017 = phi i32 [ %31, %.lr.ph19 ], [ 0, %._crit_edge ]
  %20 = load i32, ptr @ett_afs_callback, align 4
  %21 = tail call ptr (ptr, i32, i32, ptr, ...) @ptvcursor_add_text_with_subtree(ptr noundef %0, i32 noundef -1, i32 noundef %20, ptr noundef nonnull @.str.2)
  %22 = load i32, ptr @hf_afs_cb_callback_version, align 4
  %23 = tail call ptr @ptvcursor_add(ptr noundef %0, i32 noundef %22, i32 noundef 4, i32 noundef 0)
  %24 = load i32, ptr @hf_afs_cb_callback_expires, align 4
  %25 = tail call ptr @ptvcursor_tree(ptr noundef %0)
  %26 = tail call ptr @ptvcursor_tvbuff(ptr noundef %0)
  %27 = tail call i32 @ptvcursor_current_offset(ptr noundef %0)
  %28 = tail call ptr @proto_tree_add_item(ptr noundef %25, i32 noundef %24, ptr noundef %26, i32 noundef %27, i32 noundef 4, i32 noundef 18)
  tail call void @ptvcursor_advance(ptr noundef %0, i32 noundef 4)
  %29 = load i32, ptr @hf_afs_cb_callback_type, align 4
  %30 = tail call ptr @ptvcursor_add(ptr noundef %0, i32 noundef %29, i32 noundef 4, i32 noundef 0)
  tail call void @ptvcursor_pop_subtree(ptr noundef %0)
  %31 = add nuw i32 %.017, 1
  %exitcond21.not = icmp eq i32 %31, %19
  br i1 %exitcond21.not, label %.loopexit, label %.lr.ph19, !llvm.loop !22

.loopexit:                                        ; preds = %.lr.ph19, %._crit_edge, %3
  ret void
}